target datalayout = "e-m:e-p270:32:32-p271:32:32-p272:64:64-i64:64-i128:128-f80:128-n8:16:32:64-S128"
target triple = "x86_64-pc-linux-gnu"

%struct.dictEntry = type { ptr, %union.anon, ptr }
%union.anon = type { ptr }

@.str.1 = private unnamed_addr constant [7 x i8] c"dict.c\00", align 1
@.str.9 = private unnamed_addr constant [18 x i8] c"entryHasValue(de)\00", align 1

; Function Attrs: inlinehint nounwind uwtable
define internal i32 @entryIsNormal(ptr noundef %0) #11 {
  %2 = alloca ptr, align 8
  store ptr %0, ptr %2, align 8, !tbaa !36
  %3 = load ptr, ptr %2, align 8, !tbaa !36
  %4 = ptrtoint ptr %3 to i64
  %5 = and i64 %4, 7
  %6 = icmp eq i64 %5, 0
  %7 = zext i1 %6 to i32
  ret i32 %7
}

; Function Attrs: inlinehint nounwind uwtable
define internal i32 @entryHasValue(ptr noundef %0) #11 {
  %2 = alloca ptr, align 8
  store ptr %0, ptr %2, align 8, !tbaa !36
  %3 = load ptr, ptr %2, align 8, !tbaa !36
  %4 = call i32 @entryIsNormal(ptr noundef %3)
  ret i32 %4
}

; Function Attrs: nounwind uwtable
define dso_local double @dictGetDoubleVal(ptr noundef %0) #0 {
  %2 = alloca ptr, align 8
  store ptr %0, ptr %2, align 8, !tbaa !36
  %3 = load ptr, ptr %2, align 8, !tbaa !36
  %4 = call i32 @entryHasValue(ptr noundef %3)
  %5 = icmp ne i32 %4, 0
  %6 = xor i1 %5, true
  %7 = xor i1 %6, true
  %8 = zext i1 %7 to i32
  %9 = sext i32 %8 to i64
  %10 = call i64 @llvm.expect.i64(i64 %9, i64 1)
  %11 = icmp ne i64 %10, 0
  br i1 %11, label %12, label %13

12:                                               ; preds = %1
  br label %15

13:                                               ; preds = %1
  call void @_serverAssert(ptr noundef @.str.9, ptr noundef @.str.1, i32 noundef 942)
  call void @abort() #17
  unreachable

14:                                               ; No predecessors!
  br label %15

15:                                               ; preds = %14, %12
  %16 = load ptr, ptr %2, align 8, !tbaa !36
  %17 = getelementptr inbounds nuw %struct.dictEntry, ptr %16, i32 0, i32 1
  %18 = load double, ptr %17, align 8, !tbaa !25
  ret double %18
}